target datalayout = "e-m:e-p270:32:32-p271:32:32-p272:64:64-i64:64-i128:128-f80:128-n8:16:32:64-S128"
target triple = "x86_64-pc-linux-gnu"

%struct.expert_field = type { i32, i32 }

@hf_reload_length_uint32 = internal global i32 0, align 4
@hf_reload_length_uint24 = internal global i32 0, align 4
@hf_reload_length_uint16 = internal global i32 0, align 4
@hf_reload_opaque_string = internal global i32 0, align 4
@hf_reload_length_uint8 = internal global i32 0, align 4
@hf_reload_opaque = internal global i32 0, align 4
@hf_reload_opaque_data = internal global i32 0, align 4
@ett_reload_opaque = internal global i32 0, align 4
@ei_reload_computed_len_too_big = internal global %struct.expert_field zeroinitializer, align 4
@.str.649 = private unnamed_addr constant [5 x i8] c"<%d>\00", align 1
@.str.650 = private unnamed_addr constant [14 x i8] c" (opaque<%d>)\00", align 1

; Function Attrs: null_pointer_is_valid sspstrong uwtable
define internal i32 @dissect_opaque_string_or_data(ptr noundef %0, ptr noundef %1, ptr noundef %2, i32 noundef %3, i16 noundef zeroext %4, i16 noundef zeroext %5, i32 noundef %6, i1 noundef zeroext %7) #0 {
  %9 = alloca i32, align 4
  %10 = alloca ptr, align 8
  %11 = alloca ptr, align 8
  %12 = alloca ptr, align 8
  %13 = alloca i32, align 4
  %14 = alloca i16, align 2
  %15 = alloca i16, align 2
  %16 = alloca i32, align 4
  %17 = alloca i8, align 1
  %18 = alloca ptr, align 8
  %19 = alloca ptr, align 8
  %20 = alloca i32, align 4
  %21 = alloca i32, align 4
  %22 = alloca i32, align 4
  %23 = alloca i32, align 4
  %24 = alloca i32, align 4
  %25 = alloca i32, align 4
  store ptr %0, ptr %10, align 8
  store ptr %1, ptr %11, align 8
  store ptr %2, ptr %12, align 8
  store i32 %3, ptr %13, align 4
  store i16 %4, ptr %14, align 2
  store i16 %5, ptr %15, align 2
  store i32 %6, ptr %16, align 4
  %26 = zext i1 %7 to i8
  store i8 %26, ptr %17, align 1
  call void @llvm.lifetime.start.p0(i64 8, ptr %18) #8
  call void @llvm.lifetime.start.p0(i64 8, ptr %19) #8
  call void @llvm.lifetime.start.p0(i64 4, ptr %20) #8
  store i32 -1, ptr %20, align 4
  call void @llvm.lifetime.start.p0(i64 4, ptr %21) #8
  store i32 -1, ptr %21, align 4
  call void @llvm.lifetime.start.p0(i64 4, ptr %22) #8
  %27 = load i32, ptr @hf_reload_opaque, align 4
  store i32 %27, ptr %22, align 4
  call void @llvm.lifetime.start.p0(i64 4, ptr %23) #8
  %28 = load i32, ptr @hf_reload_opaque_data, align 4
  store i32 %28, ptr %23, align 4
  call void @llvm.lifetime.start.p0(i64 4, ptr %24) #8
  store i32 0, ptr %24, align 4
  %29 = load i32, ptr %13, align 4
  %30 = icmp sge i32 %29, 0
  br i1 %30, label %31, label %33

31:                                               ; preds = %8
  %32 = load i32, ptr %13, align 4
  store i32 %32, ptr %22, align 4
  br label %33

33:                                               ; preds = %31, %8
  %34 = load i8, ptr %17, align 1, !range !15, !noundef !16
  %35 = trunc i8 %34 to i1
  br i1 %35, label %36, label %38

36:                                               ; preds = %33
  %37 = load i32, ptr @hf_reload_opaque_string, align 4
  store i32 %37, ptr %23, align 4
  store i32 0, ptr %24, align 4
  br label %38

38:                                               ; preds = %36, %33
  %39 = load i16, ptr %15, align 2
  %40 = zext i16 %39 to i32
  switch i32 %40, label %76 [
    i32 1, label %41
    i32 2, label %48
    i32 3, label %55
    i32 4, label %70
  ]

41:                                               ; preds = %38
  %42 = load i32, ptr @hf_reload_length_uint8, align 4
  store i32 %42, ptr %20, align 4
  %43 = load ptr, ptr %10, align 8
  %44 = load i16, ptr %14, align 2
  %45 = zext i16 %44 to i32
  %46 = call zeroext i8 @tvb_get_uint8(ptr noundef %43, i32 noundef %45)
  %47 = zext i8 %46 to i32
  store i32 %47, ptr %21, align 4
  br label %77

48:                                               ; preds = %38
  %49 = load i32, ptr @hf_reload_length_uint16, align 4
  store i32 %49, ptr %20, align 4
  %50 = load ptr, ptr %10, align 8
  %51 = load i16, ptr %14, align 2
  %52 = zext i16 %51 to i32
  %53 = call zeroext i16 @tvb_get_ntohs(ptr noundef %50, i32 noundef %52)
  %54 = zext i16 %53 to i32
  store i32 %54, ptr %21, align 4
  br label %77

55:                                               ; preds = %38
  %56 = load i32, ptr @hf_reload_length_uint24, align 4
  store i32 %56, ptr %20, align 4
  %57 = load ptr, ptr %10, align 8
  %58 = load i16, ptr %14, align 2
  %59 = zext i16 %58 to i32
  %60 = call zeroext i16 @tvb_get_ntohs(ptr noundef %57, i32 noundef %59)
  %61 = zext i16 %60 to i32
  %62 = shl i32 %61, 8
  %63 = load ptr, ptr %10, align 8
  %64 = load i16, ptr %14, align 2
  %65 = zext i16 %64 to i32
  %66 = add i32 %65, 2
  %67 = call zeroext i8 @tvb_get_uint8(ptr noundef %63, i32 noundef %66)
  %68 = zext i8 %67 to i32
  %69 = add i32 %62, %68
  store i32 %69, ptr %21, align 4
  br label %77

70:                                               ; preds = %38
  %71 = load i32, ptr @hf_reload_length_uint32, align 4
  store i32 %71, ptr %20, align 4
  %72 = load ptr, ptr %10, align 8
  %73 = load i16, ptr %14, align 2
  %74 = zext i16 %73 to i32
  %75 = call i32 @tvb_get_ntohl(ptr noundef %72, i32 noundef %74)
  store i32 %75, ptr %21, align 4
  br label %77

76:                                               ; preds = %38
  br label %77

77:                                               ; preds = %76, %70, %55, %48, %41
  %78 = load i32, ptr %20, align 4
  %79 = icmp slt i32 %78, 0
  br i1 %79, label %80, label %81

80:                                               ; preds = %77
  store i32 0, ptr %9, align 4
  store i32 1, ptr %25, align 4
  br label %152

81:                                               ; preds = %77
  %82 = load ptr, ptr %12, align 8
  %83 = load i32, ptr %22, align 4
  %84 = load ptr, ptr %10, align 8
  %85 = load i16, ptr %14, align 2
  %86 = zext i16 %85 to i32
  %87 = load i16, ptr %15, align 2
  %88 = zext i16 %87 to i32
  %89 = load i32, ptr %21, align 4
  %90 = add i32 %88, %89
  %91 = call ptr @proto_tree_add_item(ptr noundef %82, i32 noundef %83, ptr noundef %84, i32 noundef %86, i32 noundef %90, i32 noundef 0)
  store ptr %91, ptr %19, align 8
  %92 = load i32, ptr %16, align 4
  %93 = icmp sgt i32 %92, 0
  br i1 %93, label %94, label %110

94:                                               ; preds = %81
  %95 = load i32, ptr %21, align 4
  %96 = load i16, ptr %15, align 2
  %97 = zext i16 %96 to i32
  %98 = add i32 %95, %97
  %99 = load i32, ptr %16, align 4
  %100 = icmp sgt i32 %98, %99
  br i1 %100, label %101, label %109

101:                                              ; preds = %94
  %102 = load ptr, ptr %11, align 8
  %103 = load ptr, ptr %19, align 8
  %104 = call ptr @expert_add_info(ptr noundef %102, ptr noundef %103, ptr noundef @ei_reload_computed_len_too_big)
  %105 = load i32, ptr %16, align 4
  %106 = load i16, ptr %15, align 2
  %107 = zext i16 %106 to i32
  %108 = sub i32 %105, %107
  store i32 %108, ptr %21, align 4
  br label %109

109:                                              ; preds = %101, %94
  br label %110

110:                                              ; preds = %109, %81
  %111 = load ptr, ptr %19, align 8
  %112 = load i32, ptr @ett_reload_opaque, align 4
  %113 = call ptr @proto_item_add_subtree(ptr noundef %111, i32 noundef %112)
  store ptr %113, ptr %18, align 8
  %114 = load ptr, ptr %18, align 8
  %115 = load i32, ptr %20, align 4
  %116 = load ptr, ptr %10, align 8
  %117 = load i16, ptr %14, align 2
  %118 = zext i16 %117 to i32
  %119 = load i16, ptr %15, align 2
  %120 = zext i16 %119 to i32
  %121 = load i32, ptr %21, align 4
  %122 = call ptr @proto_tree_add_uint(ptr noundef %114, i32 noundef %115, ptr noundef %116, i32 noundef %118, i32 noundef %120, i32 noundef %121)
  %123 = load i32, ptr %21, align 4
  %124 = icmp ne i32 %123, 0
  br i1 %124, label %125, label %137

125:                                              ; preds = %110
  %126 = load ptr, ptr %18, align 8
  %127 = load i32, ptr %23, align 4
  %128 = load ptr, ptr %10, align 8
  %129 = load i16, ptr %14, align 2
  %130 = zext i16 %129 to i32
  %131 = load i16, ptr %15, align 2
  %132 = zext i16 %131 to i32
  %133 = add i32 %130, %132
  %134 = load i32, ptr %21, align 4
  %135 = load i32, ptr %24, align 4
  %136 = call ptr @proto_tree_add_item(ptr noundef %126, i32 noundef %127, ptr noundef %128, i32 noundef %133, i32 noundef %134, i32 noundef %135)
  br label %137

137:                                              ; preds = %125, %110
  %138 = load i32, ptr %22, align 4
  %139 = load i32, ptr @hf_reload_opaque, align 4
  %140 = icmp ne i32 %138, %139
  br i1 %140, label %141, label %144

141:                                              ; preds = %137
  %142 = load ptr, ptr %19, align 8
  %143 = load i32, ptr %21, align 4
  call void (ptr, ptr, ...) @proto_item_append_text(ptr noundef %142, ptr noundef @.str.650, i32 noundef %143)
  br label %147

144:                                              ; preds = %137
  %145 = load ptr, ptr %19, align 8
  %146 = load i32, ptr %21, align 4
  call void (ptr, ptr, ...) @proto_item_append_text(ptr noundef %145, ptr noundef @.str.649, i32 noundef %146)
  br label %147

147:                                              ; preds = %144, %141
  %148 = load i16, ptr %15, align 2
  %149 = zext i16 %148 to i32
  %150 = load i32, ptr %21, align 4
  %151 = add i32 %149, %150
  store i32 %151, ptr %9, align 4
  store i32 1, ptr %25, align 4
  br label %152

152:                                              ; preds = %147, %80
  call void @llvm.lifetime.end.p0(i64 4, ptr %24) #8
  call void @llvm.lifetime.end.p0(i64 4, ptr %23) #8
  call void @llvm.lifetime.end.p0(i64 4, ptr %22) #8
  call void @llvm.lifetime.end.p0(i64 4, ptr %21) #8
  call void @llvm.lifetime.end.p0(i64 4, ptr %20) #8
  call void @llvm.lifetime.end.p0(i64 8, ptr %19) #8
  call void @llvm.lifetime.end.p0(i64 8, ptr %18) #8
  %153 = load i32, ptr %9, align 4
  ret i32 %153
}