; Function Attrs: null_pointer_is_valid sspstrong uwtable
define internal fastcc i32 @dissect_opaque_string_or_data(ptr noundef %0, ptr noundef %1, ptr noundef %2, i32 noundef %3, i16 noundef zeroext %4, i16 noundef zeroext range(i16 1, 5) %5, i32 noundef %6, i1 noundef zeroext %7) unnamed_addr #0 {
  %9 = load i32, ptr @hf_reload_opaque, align 4
  %10 = load i32, ptr @hf_reload_opaque_data, align 4
  %11 = icmp slt i32 %3, 0
  %spec.select = select i1 %11, i32 %9, i32 %3
  %12 = load i32, ptr @hf_reload_opaque_string, align 4
  %.051 = select i1 %7, i32 %12, i32 %10
  %13 = zext nneg i16 %5 to i32
  %14 = zext i16 %4 to i32
  switch i16 %5, label %default.unreachable58 [
    i16 1, label %15
    i16 2, label %19
    i16 3, label %23
    i16 4, label %32
  ]

15:                                               ; preds = %8
  %16 = load i32, ptr @hf_reload_length_uint8, align 4
  %17 = tail call zeroext i8 @tvb_get_uint8(ptr noundef %0, i32 noundef %14)
  %18 = zext i8 %17 to i32
  br label %35

19:                                               ; preds = %8
  %20 = load i32, ptr @hf_reload_length_uint16, align 4
  %21 = tail call zeroext i16 @tvb_get_ntohs(ptr noundef %0, i32 noundef %14)
  %22 = zext i16 %21 to i32
  br label %35

23:                                               ; preds = %8
  %24 = load i32, ptr @hf_reload_length_uint24, align 4
  %25 = tail call zeroext i16 @tvb_get_ntohs(ptr noundef %0, i32 noundef %14)
  %26 = zext i16 %25 to i32
  %27 = shl nuw nsw i32 %26, 8
  %28 = add nuw nsw i32 %14, 2
  %29 = tail call zeroext i8 @tvb_get_uint8(ptr noundef %0, i32 noundef %28)
  %30 = zext i8 %29 to i32
  %31 = or disjoint i32 %27, %30
  br label %35

32:                                               ; preds = %8
  %33 = load i32, ptr @hf_reload_length_uint32, align 4
  %34 = tail call i32 @tvb_get_ntohl(ptr noundef %0, i32 noundef %14)
  br label %35

default.unreachable58:                            ; preds = %8
  unreachable

35:                                               ; preds = %32, %23, %19, %15
  %.054 = phi i32 [ %33, %32 ], [ %24, %23 ], [ %20, %19 ], [ %16, %15 ]
  %.053 = phi i32 [ %34, %32 ], [ %31, %23 ], [ %22, %19 ], [ %18, %15 ]
  %36 = icmp slt i32 %.054, 0
  br i1 %36, label %56, label %37

37:                                               ; preds = %35
  %38 = zext i16 %4 to i32
  %39 = add i32 %.053, %13
  %40 = tail call ptr @proto_tree_add_item(ptr noundef %2, i32 noundef %spec.select, ptr noundef %0, i32 noundef %38, i32 noundef %39, i32 noundef 0)
  %41 = icmp sgt i32 %6, 0
  %42 = icmp sgt i32 %39, %6
  %or.cond = and i1 %41, %42
  br i1 %or.cond, label %43, label %46

43:                                               ; preds = %37
  %44 = tail call ptr @expert_add_info(ptr noundef %1, ptr noundef %40, ptr noundef nonnull @ei_reload_computed_len_too_big)
  %45 = sub nsw i32 %6, %13
  br label %46

46:                                               ; preds = %43, %37
  %.1 = phi i32 [ %45, %43 ], [ %.053, %37 ]
  %47 = load i32, ptr @ett_reload_opaque, align 4
  %48 = tail call ptr @proto_item_add_subtree(ptr noundef %40, i32 noundef %47)
  %49 = tail call ptr @proto_tree_add_uint(ptr noundef %48, i32 noundef %.054, ptr noundef %0, i32 noundef %38, i32 noundef %13, i32 noundef %.1)
  %.not = icmp eq i32 %.1, 0
  br i1 %.not, label %53, label %50

50:                                               ; preds = %46
  %51 = add nuw nsw i32 %13, %38
  %52 = tail call ptr @proto_tree_add_item(ptr noundef %48, i32 noundef %.051, ptr noundef %0, i32 noundef %51, i32 noundef %.1, i32 noundef 0)
  br label %53

53:                                               ; preds = %50, %46
  %54 = load i32, ptr @hf_reload_opaque, align 4
  %.not57 = icmp eq i32 %spec.select, %54
  %.str.649..str.650 = select i1 %.not57, ptr @.str.649, ptr @.str.650
  tail call void (ptr, ptr, ...) @proto_item_append_text(ptr noundef %40, ptr noundef nonnull %.str.649..str.650, i32 noundef %.1)
  %55 = add i32 %.1, %13
  br label %56

56:                                               ; preds = %35, %53
  %.055 = phi i32 [ %55, %53 ], [ 0, %35 ]
  ret i32 %.055
}